target datalayout = "e-m:e-p270:32:32-p271:32:32-p272:64:64-i64:64-i128:128-f80:128-n8:16:32:64-S128"
target triple = "x86_64-pc-linux-gnu"

%struct._alias_key = type { i32, i32, i32 }

; Function Attrs: null_pointer_is_valid sspstrong uwtable
define internal i32 @oap_1_alias_hash_func(ptr noundef %0) #0 {
  %2 = alloca ptr, align 8
  %3 = alloca ptr, align 8
  store ptr %0, ptr %2, align 8
  call void @llvm.lifetime.start.p0(i64 8, ptr %3) #19
  %4 = load ptr, ptr %2, align 8
  store ptr %4, ptr %3, align 8
  %5 = load ptr, ptr %3, align 8
  %6 = getelementptr inbounds nuw %struct._alias_key, ptr %5, i32 0, i32 0
  %7 = call i32 @g_int_hash(ptr noundef %6)
  %8 = load ptr, ptr %3, align 8
  %9 = getelementptr inbounds nuw %struct._alias_key, ptr %8, i32 0, i32 1
  %10 = call i32 @g_int_hash(ptr noundef %9)
  %11 = add i32 %7, %10
  %12 = load ptr, ptr %3, align 8
  %13 = getelementptr inbounds nuw %struct._alias_key, ptr %12, i32 0, i32 2
  %14 = call i32 @g_int_hash(ptr noundef %13)
  %15 = add i32 %11, %14
  call void @llvm.lifetime.end.p0(i64 8, ptr %3) #19
  ret i32 %15
}